target datalayout = "e-m:e-p270:32:32-p271:32:32-p272:64:64-i64:64-i128:128-f80:128-n8:16:32:64-S128"
target triple = "x86_64-pc-linux-gnu"

%"class.Assimp::SMDImporter" = type <{ %"class.Assimp::BaseImporter", i32, [4 x i8], %"class.std::vector", ptr, ptr, i32, [4 x i8], %"class.std::vector.0", %"class.std::vector.5", %"class.std::vector.10", i32, [4 x i8], double, i8, [3 x i8], i32, i8, i8, [6 x i8] }>
%"class.Assimp::BaseImporter" = type { ptr, double, double, %"class.std::__cxx11::basic_string", %"class.std::__exception_ptr::exception_ptr", ptr }
%"class.std::__cxx11::basic_string" = type { %"struct.std::__cxx11::basic_string<char>::_Alloc_hider", i64, %union.anon }
%"struct.std::__cxx11::basic_string<char>::_Alloc_hider" = type { ptr }
%union.anon = type { i64, [8 x i8] }
%"class.std::__exception_ptr::exception_ptr" = type { ptr }
%"class.std::vector" = type { %"struct.std::_Vector_base" }
%"struct.std::_Vector_base" = type { %"struct.std::_Vector_base<char, std::allocator<char>>::_Vector_impl" }
%"struct.std::_Vector_base<char, std::allocator<char>>::_Vector_impl" = type { %"struct.std::_Vector_base<char, std::allocator<char>>::_Vector_impl_data" }
%"struct.std::_Vector_base<char, std::allocator<char>>::_Vector_impl_data" = type { ptr, ptr, ptr }
%"class.std::vector.0" = type { %"struct.std::_Vector_base.1" }
%"struct.std::_Vector_base.1" = type { %"struct.std::_Vector_base<std::__cxx11::basic_string<char>, std::allocator<std::__cxx11::basic_string<char>>>::_Vector_impl" }
%"struct.std::_Vector_base<std::__cxx11::basic_string<char>, std::allocator<std::__cxx11::basic_string<char>>>::_Vector_impl" = type { %"struct.std::_Vector_base<std::__cxx11::basic_string<char>, std::allocator<std::__cxx11::basic_string<char>>>::_Vector_impl_data" }
%"struct.std::_Vector_base<std::__cxx11::basic_string<char>, std::allocator<std::__cxx11::basic_string<char>>>::_Vector_impl_data" = type { ptr, ptr, ptr }
%"class.std::vector.5" = type { %"struct.std::_Vector_base.6" }
%"struct.std::_Vector_base.6" = type { %"struct.std::_Vector_base<Assimp::SMD::Face, std::allocator<Assimp::SMD::Face>>::_Vector_impl" }
%"struct.std::_Vector_base<Assimp::SMD::Face, std::allocator<Assimp::SMD::Face>>::_Vector_impl" = type { %"struct.std::_Vector_base<Assimp::SMD::Face, std::allocator<Assimp::SMD::Face>>::_Vector_impl_data" }
%"struct.std::_Vector_base<Assimp::SMD::Face, std::allocator<Assimp::SMD::Face>>::_Vector_impl_data" = type { ptr, ptr, ptr }
%"class.std::vector.10" = type { %"struct.std::_Vector_base.11" }
%"struct.std::_Vector_base.11" = type { %"struct.std::_Vector_base<Assimp::SMD::Bone, std::allocator<Assimp::SMD::Bone>>::_Vector_impl" }
%"struct.std::_Vector_base<Assimp::SMD::Bone, std::allocator<Assimp::SMD::Bone>>::_Vector_impl" = type { %"struct.std::_Vector_base<Assimp::SMD::Bone, std::allocator<Assimp::SMD::Bone>>::_Vector_impl_data" }
%"struct.std::_Vector_base<Assimp::SMD::Bone, std::allocator<Assimp::SMD::Bone>>::_Vector_impl_data" = type { ptr, ptr, ptr }

@.str.34 = private unnamed_addr constant [4 x i8] c"end\00", align 1

; Function Attrs: inlinehint mustprogress nounwind uwtable
define linkonce_odr hidden noundef zeroext i1 @_ZN6Assimp9IsLineEndIcEEbT_(i8 noundef signext %0) #6 comdat {
  %2 = alloca i8, align 1
  store i8 %0, ptr %2, align 1
  %3 = load i8, ptr %2, align 1
  %4 = sext i8 %3 to i32
  %5 = icmp eq i32 %4, 13
  br i1 %5, label %18, label %6

6:                                                ; preds = %1
  %7 = load i8, ptr %2, align 1
  %8 = sext i8 %7 to i32
  %9 = icmp eq i32 %8, 10
  br i1 %9, label %18, label %10

10:                                               ; preds = %6
  %11 = load i8, ptr %2, align 1
  %12 = sext i8 %11 to i32
  %13 = icmp eq i32 %12, 0
  br i1 %13, label %18, label %14

14:                                               ; preds = %10
  %15 = load i8, ptr %2, align 1
  %16 = sext i8 %15 to i32
  %17 = icmp eq i32 %16, 12
  br label %18

18:                                               ; preds = %14, %10, %6, %1
  %19 = phi i1 [ true, %10 ], [ true, %6 ], [ true, %1 ], [ %17, %14 ]
  ret i1 %19
}

; Function Attrs: inlinehint mustprogress nounwind uwtable
define linkonce_odr hidden noundef zeroext i1 @_ZN6Assimp7IsSpaceIcEEbT_(i8 noundef signext %0) #6 comdat {
  %2 = alloca i8, align 1
  store i8 %0, ptr %2, align 1
  %3 = load i8, ptr %2, align 1
  %4 = sext i8 %3 to i32
  %5 = icmp eq i32 %4, 32
  br i1 %5, label %10, label %6

6:                                                ; preds = %1
  %7 = load i8, ptr %2, align 1
  %8 = sext i8 %7 to i32
  %9 = icmp eq i32 %8, 9
  br label %10

10:                                               ; preds = %6, %1
  %11 = phi i1 [ true, %1 ], [ %9, %6 ]
  ret i1 %11
}

; Function Attrs: inlinehint mustprogress uwtable
define linkonce_odr hidden noundef zeroext i1 @_ZN6Assimp16IsSpaceOrNewLineIcEEbT_(i8 noundef signext %0) #11 comdat {
  %2 = alloca i8, align 1
  store i8 %0, ptr %2, align 1
  %3 = load i8, ptr %2, align 1
  %4 = call noundef zeroext i1 @_ZN6Assimp7IsSpaceIcEEbT_(i8 noundef signext %3)
  br i1 %4, label %8, label %5

5:                                                ; preds = %1
  %6 = load i8, ptr %2, align 1
  %7 = call noundef zeroext i1 @_ZN6Assimp9IsLineEndIcEEbT_(i8 noundef signext %6)
  br label %8

8:                                                ; preds = %5, %1
  %9 = phi i1 [ true, %1 ], [ %7, %5 ]
  ret i1 %9
}

; Function Attrs: inlinehint mustprogress nounwind uwtable
define linkonce_odr hidden noundef zeroext i1 @_ZN6Assimp20SkipSpacesAndLineEndIcEEbPKT_PS3_S3_(ptr noundef %0, ptr noundef %1, ptr noundef %2) #6 comdat {
  %4 = alloca ptr, align 8
  %5 = alloca ptr, align 8
  %6 = alloca ptr, align 8
  store ptr %0, ptr %4, align 8
  store ptr %1, ptr %5, align 8
  store ptr %2, ptr %6, align 8
  br label %7

7:                                                ; preds = %33, %3
  %8 = load ptr, ptr %4, align 8
  %9 = load i8, ptr %8, align 1
  %10 = sext i8 %9 to i32
  %11 = icmp eq i32 %10, 32
  br i1 %11, label %27, label %12

12:                                               ; preds = %7
  %13 = load ptr, ptr %4, align 8
  %14 = load i8, ptr %13, align 1
  %15 = sext i8 %14 to i32
  %16 = icmp eq i32 %15, 9
  br i1 %16, label %27, label %17

17:                                               ; preds = %12
  %18 = load ptr, ptr %4, align 8
  %19 = load i8, ptr %18, align 1
  %20 = sext i8 %19 to i32
  %21 = icmp eq i32 %20, 13
  br i1 %21, label %27, label %22

22:                                               ; preds = %17
  %23 = load ptr, ptr %4, align 8
  %24 = load i8, ptr %23, align 1
  %25 = sext i8 %24 to i32
  %26 = icmp eq i32 %25, 10
  br i1 %26, label %27, label %31

27:                                               ; preds = %22, %17, %12, %7
  %28 = load ptr, ptr %4, align 8
  %29 = load ptr, ptr %6, align 8
  %30 = icmp ne ptr %28, %29
  br label %31

31:                                               ; preds = %27, %22
  %32 = phi i1 [ false, %22 ], [ %30, %27 ]
  br i1 %32, label %33, label %36

33:                                               ; preds = %31
  %34 = load ptr, ptr %4, align 8
  %35 = getelementptr inbounds nuw i8, ptr %34, i32 1
  store ptr %35, ptr %4, align 8
  br label %7, !llvm.loop !30

36:                                               ; preds = %31
  %37 = load ptr, ptr %4, align 8
  %38 = load ptr, ptr %5, align 8
  store ptr %37, ptr %38, align 8
  %39 = load ptr, ptr %4, align 8
  %40 = load i8, ptr %39, align 1
  %41 = sext i8 %40 to i32
  %42 = icmp ne i32 %41, 0
  ret i1 %42
}

; Function Attrs: inlinehint mustprogress uwtable
define linkonce_odr hidden noundef zeroext i1 @_ZN6Assimp10TokenMatchIKcEEbRPT_PS1_j(ptr noundef nonnull align 8 dereferenceable(8) %0, ptr noundef %1, i32 noundef %2) #11 comdat {
  %4 = alloca i1, align 1
  %5 = alloca ptr, align 8
  %6 = alloca ptr, align 8
  %7 = alloca i32, align 4
  store ptr %0, ptr %5, align 8
  store ptr %1, ptr %6, align 8
  store i32 %2, ptr %7, align 4
  %8 = load ptr, ptr %6, align 8
  %9 = load ptr, ptr %5, align 8
  %10 = load ptr, ptr %9, align 8
  %11 = load i32, ptr %7, align 4
  %12 = zext i32 %11 to i64
  %13 = call i32 @strncmp(ptr noundef %8, ptr noundef %10, i64 noundef %12) #22
  %14 = icmp ne i32 %13, 0
  br i1 %14, label %46, label %15

15:                                               ; preds = %3
  %16 = load ptr, ptr %5, align 8
  %17 = load ptr, ptr %16, align 8
  %18 = load i32, ptr %7, align 4
  %19 = zext i32 %18 to i64
  %20 = getelementptr inbounds nuw i8, ptr %17, i64 %19
  %21 = load i8, ptr %20, align 1
  %22 = call noundef zeroext i1 @_ZN6Assimp16IsSpaceOrNewLineIcEEbT_(i8 noundef signext %21)
  br i1 %22, label %23, label %46

23:                                               ; preds = %15
  %24 = load ptr, ptr %5, align 8
  %25 = load ptr, ptr %24, align 8
  %26 = load i32, ptr %7, align 4
  %27 = zext i32 %26 to i64
  %28 = getelementptr inbounds nuw i8, ptr %25, i64 %27
  %29 = load i8, ptr %28, align 1
  %30 = sext i8 %29 to i32
  %31 = icmp ne i32 %30, 0
  br i1 %31, label %32, label %39

32:                                               ; preds = %23
  %33 = load i32, ptr %7, align 4
  %34 = add i32 %33, 1
  %35 = load ptr, ptr %5, align 8
  %36 = load ptr, ptr %35, align 8
  %37 = zext i32 %34 to i64
  %38 = getelementptr inbounds nuw i8, ptr %36, i64 %37
  store ptr %38, ptr %35, align 8
  br label %45

39:                                               ; preds = %23
  %40 = load i32, ptr %7, align 4
  %41 = load ptr, ptr %5, align 8
  %42 = load ptr, ptr %41, align 8
  %43 = zext i32 %40 to i64
  %44 = getelementptr inbounds nuw i8, ptr %42, i64 %43
  store ptr %44, ptr %41, align 8
  br label %45

45:                                               ; preds = %39, %32
  store i1 true, ptr %4, align 1
  br label %47

46:                                               ; preds = %15, %3
  store i1 false, ptr %4, align 1
  br label %47

47:                                               ; preds = %46, %45
  %48 = load i1, ptr %4, align 1
  ret i1 %48
}

; Function Attrs: inlinehint mustprogress uwtable
define linkonce_odr noundef zeroext i1 @_ZN6Assimp11SMDImporter20SkipSpacesAndLineEndEPKcPS2_S2_(ptr noundef nonnull align 8 dereferenceable(226) %0, ptr noundef %1, ptr noundef %2, ptr noundef %3) #11 comdat align 2 {
  %5 = alloca ptr, align 8
  %6 = alloca ptr, align 8
  %7 = alloca ptr, align 8
  %8 = alloca ptr, align 8
  store ptr %0, ptr %5, align 8
  store ptr %1, ptr %6, align 8
  store ptr %2, ptr %7, align 8
  store ptr %3, ptr %8, align 8
  %9 = load ptr, ptr %5, align 8
  %10 = getelementptr inbounds nuw %"class.Assimp::SMDImporter", ptr %9, i32 0, i32 16
  %11 = load i32, ptr %10, align 4
  %12 = add i32 %11, 1
  store i32 %12, ptr %10, align 4
  %13 = load ptr, ptr %6, align 8
  %14 = load ptr, ptr %7, align 8
  %15 = load ptr, ptr %8, align 8
  %16 = call noundef zeroext i1 @_ZN6Assimp20SkipSpacesAndLineEndIcEEbPKT_PS3_S3_(ptr noundef %13, ptr noundef %14, ptr noundef %15)
  ret i1 %16
}

; Function Attrs: mustprogress uwtable
define void @_ZN6Assimp11SMDImporter21ParseTrianglesSectionEPKcPS2_S2_(ptr noundef nonnull align 8 dereferenceable(226) %0, ptr noundef %1, ptr noundef %2, ptr noundef %3) #3 align 2 {
  %5 = alloca ptr, align 8
  %6 = alloca ptr, align 8
  %7 = alloca ptr, align 8
  %8 = alloca ptr, align 8
  store ptr %0, ptr %5, align 8
  store ptr %1, ptr %6, align 8
  store ptr %2, ptr %7, align 8
  store ptr %3, ptr %8, align 8
  %9 = load ptr, ptr %5, align 8
  br label %10

10:                                               ; preds = %18, %4
  %11 = load ptr, ptr %6, align 8
  %12 = load ptr, ptr %8, align 8
  %13 = call noundef zeroext i1 @_ZN6Assimp11SMDImporter20SkipSpacesAndLineEndEPKcPS2_S2_(ptr noundef nonnull align 8 dereferenceable(226) %9, ptr noundef %11, ptr noundef %6, ptr noundef %12)
  br i1 %13, label %15, label %14

14:                                               ; preds = %10
  br label %21

15:                                               ; preds = %10
  %16 = call noundef zeroext i1 @_ZN6Assimp10TokenMatchIKcEEbRPT_PS1_j(ptr noundef nonnull align 8 dereferenceable(8) %6, ptr noundef @.str.34, i32 noundef 3)
  br i1 %16, label %17, label %18

17:                                               ; preds = %15
  br label %21

18:                                               ; preds = %15
  %19 = load ptr, ptr %6, align 8
  %20 = load ptr, ptr %8, align 8
  call void @_ZN6Assimp11SMDImporter13ParseTriangleEPKcPS2_S2_(ptr noundef nonnull align 8 dereferenceable(226) %9, ptr noundef %19, ptr noundef %6, ptr noundef %20)
  br label %10, !llvm.loop !23

21:                                               ; preds = %17, %14
  %22 = load ptr, ptr %6, align 8
  %23 = load ptr, ptr %8, align 8
  %24 = call noundef zeroext i1 @_ZN6Assimp11SMDImporter20SkipSpacesAndLineEndEPKcPS2_S2_(ptr noundef nonnull align 8 dereferenceable(226) %9, ptr noundef %22, ptr noundef %6, ptr noundef %23)
  %25 = load ptr, ptr %6, align 8
  %26 = load ptr, ptr %7, align 8
  store ptr %25, ptr %26, align 8
  ret void
}