; Function Attrs: mustprogress uwtable
define void @_ZN6Assimp11SMDImporter21ParseTrianglesSectionEPKcPS2_S2_(ptr noundef nonnull align 8 dereferenceable(226) %0, ptr noundef %1, ptr noundef writeonly captures(none) %2, ptr noundef %3) local_unnamed_addr #3 align 2 {
  %5 = alloca ptr, align 8
  %6 = getelementptr inbounds nuw i8, ptr %0, i64 220
  %7 = ptrtoint ptr %3 to i64
  br label %8

8:                                                ; preds = %35, %4
  %9 = phi ptr [ %.pre, %35 ], [ %1, %4 ]
  %10 = load i32, ptr %6, align 4
  %11 = add i32 %10, 1
  store i32 %11, ptr %6, align 4
  %12 = ptrtoint ptr %9 to i64
  %13 = sub i64 %7, %12
  %scevgep.i.i = getelementptr i8, ptr %9, i64 %13
  br label %14

14:                                               ; preds = %17, %8
  %.0.i.i = phi ptr [ %9, %8 ], [ %18, %17 ]
  %15 = load i8, ptr %.0.i.i, align 1
  switch i8 %15, label %_ZN6Assimp11SMDImporter20SkipSpacesAndLineEndEPKcPS2_S2_.exit [
    i8 32, label %16
    i8 9, label %16
    i8 13, label %16
    i8 10, label %16
  ]

16:                                               ; preds = %14, %14, %14, %14
  %.not.i.i = icmp eq ptr %.0.i.i, %3
  br i1 %.not.i.i, label %_ZN6Assimp11SMDImporter20SkipSpacesAndLineEndEPKcPS2_S2_.exit, label %17

17:                                               ; preds = %16
  %18 = getelementptr inbounds nuw i8, ptr %.0.i.i, i64 1
  br label %14, !llvm.loop !87

_ZN6Assimp11SMDImporter20SkipSpacesAndLineEndEPKcPS2_S2_.exit: ; preds = %14, %16
  %19 = phi ptr [ %.0.i.i, %14 ], [ %scevgep.i.i, %16 ]
  store ptr %19, ptr %5, align 8
  %20 = load i8, ptr %19, align 1
  %.not = icmp eq i8 %20, 0
  br i1 %.not, label %.loopexit, label %sub_0

sub_0:                                            ; preds = %_ZN6Assimp11SMDImporter20SkipSpacesAndLineEndEPKcPS2_S2_.exit
  %21 = zext i8 %20 to i32
  %22 = sub nsw i32 101, %21
  %.not19 = icmp eq i8 %20, 101
  br i1 %.not19, label %sub_1, label %.tail

sub_1:                                            ; preds = %sub_0
  %23 = getelementptr inbounds nuw i8, ptr %19, i64 1
  %24 = load i8, ptr %23, align 1
  %25 = zext i8 %24 to i32
  %26 = sub nsw i32 110, %25
  %.not20 = icmp eq i8 %24, 110
  br i1 %.not20, label %sub_2, label %.tail

sub_2:                                            ; preds = %sub_1
  %27 = getelementptr inbounds nuw i8, ptr %19, i64 2
  %28 = load i8, ptr %27, align 1
  %29 = zext i8 %28 to i32
  %30 = sub nsw i32 100, %29
  br label %.tail

.tail:                                            ; preds = %sub_0, %sub_1, %sub_2
  %31 = phi i32 [ %22, %sub_0 ], [ %26, %sub_1 ], [ %30, %sub_2 ]
  %.not.i = icmp eq i32 %31, 0
  br i1 %.not.i, label %32, label %35

32:                                               ; preds = %.tail
  %33 = getelementptr inbounds nuw i8, ptr %19, i64 3
  %34 = load i8, ptr %33, align 1
  switch i8 %34, label %35 [
    i8 32, label %_ZN6Assimp10TokenMatchIKcEEbRPT_PS1_j.exit
    i8 9, label %_ZN6Assimp10TokenMatchIKcEEbRPT_PS1_j.exit
    i8 13, label %_ZN6Assimp10TokenMatchIKcEEbRPT_PS1_j.exit
    i8 10, label %_ZN6Assimp10TokenMatchIKcEEbRPT_PS1_j.exit
    i8 0, label %_ZN6Assimp10TokenMatchIKcEEbRPT_PS1_j.exit
    i8 12, label %_ZN6Assimp10TokenMatchIKcEEbRPT_PS1_j.exit
  ]

_ZN6Assimp10TokenMatchIKcEEbRPT_PS1_j.exit:       ; preds = %32, %32, %32, %32, %32, %32
  %.not11.i = icmp eq i8 %34, 0
  %storemerge.i.v = select i1 %.not11.i, i64 3, i64 4
  %storemerge.i = getelementptr inbounds nuw i8, ptr %19, i64 %storemerge.i.v
  store ptr %storemerge.i, ptr %5, align 8
  br label %.loopexit

35:                                               ; preds = %.tail, %32
  call void @_ZN6Assimp11SMDImporter13ParseTriangleEPKcPS2_S2_(ptr noundef nonnull align 8 dereferenceable(226) %0, ptr noundef nonnull %19, ptr noundef nonnull %5, ptr noundef %3)
  %.pre = load ptr, ptr %5, align 8
  br label %8, !llvm.loop !92

.loopexit:                                        ; preds = %_ZN6Assimp11SMDImporter20SkipSpacesAndLineEndEPKcPS2_S2_.exit, %_ZN6Assimp10TokenMatchIKcEEbRPT_PS1_j.exit
  %36 = phi ptr [ %storemerge.i, %_ZN6Assimp10TokenMatchIKcEEbRPT_PS1_j.exit ], [ %19, %_ZN6Assimp11SMDImporter20SkipSpacesAndLineEndEPKcPS2_S2_.exit ]
  %37 = add i32 %10, 2
  store i32 %37, ptr %6, align 4
  %38 = ptrtoint ptr %36 to i64
  %39 = sub i64 %7, %38
  %scevgep.i.i5 = getelementptr i8, ptr %36, i64 %39
  br label %40

40:                                               ; preds = %43, %.loopexit
  %.0.i.i6 = phi ptr [ %36, %.loopexit ], [ %44, %43 ]
  %41 = load i8, ptr %.0.i.i6, align 1
  switch i8 %41, label %_ZN6Assimp11SMDImporter20SkipSpacesAndLineEndEPKcPS2_S2_.exit9 [
    i8 32, label %42
    i8 9, label %42
    i8 13, label %42
    i8 10, label %42
  ]

42:                                               ; preds = %40, %40, %40, %40
  %.not.i.i7 = icmp eq ptr %.0.i.i6, %3
  br i1 %.not.i.i7, label %_ZN6Assimp11SMDImporter20SkipSpacesAndLineEndEPKcPS2_S2_.exit9, label %43

43:                                               ; preds = %42
  %44 = getelementptr inbounds nuw i8, ptr %.0.i.i6, i64 1
  br label %40, !llvm.loop !87

_ZN6Assimp11SMDImporter20SkipSpacesAndLineEndEPKcPS2_S2_.exit9: ; preds = %40, %42
  %.0.lcssa.i.i8 = phi ptr [ %.0.i.i6, %40 ], [ %scevgep.i.i5, %42 ]
  store ptr %.0.lcssa.i.i8, ptr %2, align 8
  ret void
}